target datalayout = "e-m:e-p270:32:32-p271:32:32-p272:64:64-i64:64-i128:128-f80:128-n8:16:32:64-S128"
target triple = "x86_64-pc-linux-gnu"

%class.svector = type { %class.vector.0 }
%class.vector.0 = type { ptr }

; Function Attrs: mustprogress uwtable
define hidden void @_ZN7datalog10table_base12remove_factsEjPK7svectorImjE(ptr noundef nonnull align 8 dereferenceable(36) %0, i32 noundef %1, ptr noundef %2) unnamed_addr #4 align 2 {
  %4 = alloca ptr, align 8
  %5 = alloca i32, align 4
  %6 = alloca ptr, align 8
  %7 = alloca i32, align 4
  store ptr %0, ptr %4, align 8, !tbaa !10
  store i32 %1, ptr %5, align 4, !tbaa !29
  store ptr %2, ptr %6, align 8, !tbaa !404
  %8 = load ptr, ptr %4, align 8
  call void @llvm.lifetime.start.p0(i64 4, ptr %7) #3
  store i32 0, ptr %7, align 4, !tbaa !29
  br label %9

9:                                                ; preds = %22, %3
  %10 = load i32, ptr %7, align 4, !tbaa !29
  %11 = load i32, ptr %5, align 4, !tbaa !29
  %12 = icmp ult i32 %10, %11
  br i1 %12, label %14, label %13

13:                                               ; preds = %9
  call void @llvm.lifetime.end.p0(i64 4, ptr %7) #3
  br label %25

14:                                               ; preds = %9
  %15 = load ptr, ptr %6, align 8, !tbaa !404
  %16 = load i32, ptr %7, align 4, !tbaa !29
  %17 = zext i32 %16 to i64
  %18 = getelementptr inbounds nuw %class.svector, ptr %15, i64 %17
  %19 = load ptr, ptr %8, align 8, !tbaa !8
  %20 = getelementptr inbounds ptr, ptr %19, i64 20
  %21 = load ptr, ptr %20, align 8
  call void %21(ptr noundef nonnull align 8 dereferenceable(36) %8, ptr noundef nonnull align 8 dereferenceable(8) %18)
  br label %22

22:                                               ; preds = %14
  %23 = load i32, ptr %7, align 4, !tbaa !29
  %24 = add i32 %23, 1
  store i32 %24, ptr %7, align 4, !tbaa !29
  br label %9, !llvm.loop !406

25:                                               ; preds = %13
  ret void
}